; Function Attrs: mustprogress uwtable
define void @_ZNK10open_spiel5tarok9TarokGame11GetRNGStateB5cxx11Ev(ptr dead_on_unwind noalias writable sret(%"class.std::__cxx11::basic_string") align 8 %0, ptr noundef nonnull align 8 dereferenceable(5288) %1) unnamed_addr #5 align 2 personality ptr @__gxx_personality_v0 {
  %3 = alloca %"class.std::__cxx11::basic_ostringstream", align 8
  call void @_ZNSt7__cxx1119basic_ostringstreamIcSt11char_traitsIcESaIcEEC1Ev(ptr noundef nonnull align 8 dereferenceable(112) %3)
  %4 = getelementptr inbounds nuw i8, ptr %1, i64 288
  %5 = invoke noundef nonnull align 8 dereferenceable(8) ptr @_ZStlsImLm32ELm624ELm397ELm31ETnT_Lm2567483615ELm11ETnS0_Lm4294967295ELm7ETnS0_Lm2636928640ELm15ETnS0_Lm4022730752ELm18ETnS0_Lm1812433253EcSt11char_traitsIcEERSt13basic_ostreamIT13_T14_ES7_RKSt23mersenne_twister_engineIS0_XT0_EXT1_EXT2_EXT3_EXT4_EXT5_EXT6_EXT7_EXT8_EXT9_EXT10_EXT11_EXT12_EE(ptr noundef nonnull align 8 dereferenceable(8) %3, ptr noundef nonnull align 8 dereferenceable(5000) %4)
          to label %6 unwind label %8

6:                                                ; preds = %2
  invoke void @_ZNKSt7__cxx1119basic_ostringstreamIcSt11char_traitsIcESaIcEE3strEv(ptr dead_on_unwind writable sret(%"class.std::__cxx11::basic_string") align 8 %0, ptr noundef nonnull align 8 dereferenceable(112) %3)
          to label %7 unwind label %8

7:                                                ; preds = %6
  call void @_ZNSt7__cxx1119basic_ostringstreamIcSt11char_traitsIcESaIcEED1Ev(ptr noundef nonnull align 8 dereferenceable(112) %3) #30
  ret void

8:                                                ; preds = %6, %2
  %9 = landingpad { ptr, i32 }
          cleanup
  call void @_ZNSt7__cxx1119basic_ostringstreamIcSt11char_traitsIcESaIcEED1Ev(ptr noundef nonnull align 8 dereferenceable(112) %3) #30
  resume { ptr, i32 } %9
}